target datalayout = "e-m:e-p270:32:32-p271:32:32-p272:64:64-i64:64-i128:128-f80:128-n8:16:32:64-S128"
target triple = "x86_64-unknown-linux-gnu"

%"class.icu_75::UObject" = type { ptr }
%"class.icu_75::DateFormat" = type { %"class.icu_75::Format.base", ptr, ptr, %"class.icu_75::EnumSet", i32 }
%"class.icu_75::Format.base" = type <{ %"class.icu_75::UObject", [157 x i8], [157 x i8] }>
%"class.icu_75::EnumSet" = type { i32 }

; Function Attrs: mustprogress nounwind uwtable
define void @_ZN6icu_7510DateFormat13adoptCalendarEPNS_8CalendarE(ptr noundef nonnull align 8 dereferenceable(352) %this, ptr noundef %newCalendar) unnamed_addr #0 align 2 {
entry:
  %this.addr = alloca ptr, align 8
  %newCalendar.addr = alloca ptr, align 8
  store ptr %this, ptr %this.addr, align 8
  store ptr %newCalendar, ptr %newCalendar.addr, align 8
  %this1 = load ptr, ptr %this.addr, align 8
  %fCalendar = getelementptr inbounds %"class.icu_75::DateFormat", ptr %this1, i32 0, i32 1
  %0 = load ptr, ptr %fCalendar, align 8
  %isnull = icmp eq ptr %0, null
  br i1 %isnull, label %delete.end, label %delete.notnull

delete.notnull:                                   ; preds = %entry
  %vtable = load ptr, ptr %0, align 8
  %vfn = getelementptr inbounds ptr, ptr %vtable, i64 1
  %1 = load ptr, ptr %vfn, align 8
  call void %1(ptr noundef nonnull align 8 dereferenceable(618) %0) #7
  br label %delete.end

delete.end:                                       ; preds = %delete.notnull, %entry
  %2 = load ptr, ptr %newCalendar.addr, align 8
  %fCalendar2 = getelementptr inbounds %"class.icu_75::DateFormat", ptr %this1, i32 0, i32 1
  store ptr %2, ptr %fCalendar2, align 8
  ret void
}