; Function Attrs: mustprogress nounwind uwtable
define void @_ZN6icu_7510DateFormat13adoptCalendarEPNS_8CalendarE(ptr nocapture noundef nonnull align 8 dereferenceable(352) %this, ptr noundef %newCalendar) unnamed_addr #0 align 2 {
entry:
  %fCalendar = getelementptr inbounds i8, ptr %this, i64 328
  %0 = load ptr, ptr %fCalendar, align 8
  %isnull = icmp eq ptr %0, null
  br i1 %isnull, label %delete.end, label %delete.notnull

delete.notnull:                                   ; preds = %entry
  %vtable = load ptr, ptr %0, align 8
  %vfn = getelementptr inbounds i8, ptr %vtable, i64 8
  %1 = load ptr, ptr %vfn, align 8
  tail call void %1(ptr noundef nonnull align 8 dereferenceable(618) %0) #13
  br label %delete.end

delete.end:                                       ; preds = %delete.notnull, %entry
  store ptr %newCalendar, ptr %fCalendar, align 8
  ret void
}